; Function Attrs: mustprogress nounwind uwtable
define hidden void @_ZN14RecursiveMutex6unlockEP6Thread(ptr noundef nonnull align 8 dereferenceable(44) %0, ptr nocapture noundef readnone %1) local_unnamed_addr #0 align 2 {
  %3 = getelementptr inbounds i8, ptr %0, i64 40
  %4 = load i32, ptr %3, align 8
  %5 = add nsw i32 %4, -1
  store i32 %5, ptr %3, align 8
  %6 = icmp eq i32 %5, 0
  br i1 %6, label %7, label %9

7:                                                ; preds = %2
  %8 = getelementptr inbounds i8, ptr %0, i64 32
  store ptr null, ptr %8, align 8
  tail call void @_ZN14PosixSemaphore6signalEj(ptr noundef nonnull align 8 dereferenceable(32) %0, i32 noundef 1) #7
  br label %9

9:                                                ; preds = %7, %2
  ret void
}